target datalayout = "e-m:e-p270:32:32-p271:32:32-p272:64:64-i64:64-i128:128-f80:128-n8:16:32:64-S128"
target triple = "x86_64-pc-linux-gnu"

%"struct.duckdb_zstd::FSE_DTableHeader" = type { i16, i16 }
%"struct.duckdb_zstd::BIT_DStream_t" = type { i64, i32, ptr, ptr, ptr }
%"struct.duckdb_zstd::FSE_DState_t" = type { i64, ptr }

@_ZZN11duckdb_zstdL17BIT_reloadDStreamEPNS_13BIT_DStream_tEE10zeroFilled = internal constant i64 0, align 8

; Function Attrs: inlinehint mustprogress nounwind uwtable
define internal noundef i64 @_ZN11duckdb_zstdL10MEM_swap64Em(i64 noundef %0) #4 {
  %2 = alloca i64, align 8
  store i64 %0, ptr %2, align 8, !tbaa !13
  %3 = load i64, ptr %2, align 8, !tbaa !13
  %4 = call i64 @llvm.bswap.i64(i64 %3)
  ret i64 %4
}

; Function Attrs: inlinehint mustprogress nounwind uwtable
define internal noundef i64 @_ZN11duckdb_zstdL10MEM_read64EPKv(ptr noundef %0) #4 {
  %2 = alloca ptr, align 8
  store ptr %0, ptr %2, align 8, !tbaa !12
  %3 = load ptr, ptr %2, align 8, !tbaa !12
  %4 = load i64, ptr %3, align 1, !tbaa !13
  ret i64 %4
}

; Function Attrs: inlinehint mustprogress nounwind uwtable
define internal noundef i32 @_ZN11duckdb_zstdL10MEM_swap32Ej(i32 noundef %0) #4 {
  %2 = alloca i32, align 4
  store i32 %0, ptr %2, align 4, !tbaa !10
  %3 = load i32, ptr %2, align 4, !tbaa !10
  %4 = call i32 @llvm.bswap.i32(i32 %3)
  ret i32 %4
}

; Function Attrs: inlinehint mustprogress nounwind uwtable
define internal noundef i32 @_ZN11duckdb_zstdL10MEM_read32EPKv(ptr noundef %0) #4 {
  %2 = alloca ptr, align 8
  store ptr %0, ptr %2, align 8, !tbaa !12
  %3 = load ptr, ptr %2, align 8, !tbaa !12
  %4 = load i32, ptr %3, align 1, !tbaa !10
  ret i32 %4
}

; Function Attrs: inlinehint mustprogress nounwind uwtable
define internal noundef i32 @_ZN11duckdb_zstdL18MEM_isLittleEndianEv() #4 {
  ret i32 1
}

; Function Attrs: inlinehint mustprogress uwtable
define internal noundef i64 @_ZN11duckdb_zstdL12MEM_readLE64EPKv(ptr noundef %0) #5 {
  %2 = alloca i64, align 8
  %3 = alloca ptr, align 8
  store ptr %0, ptr %3, align 8, !tbaa !12
  %4 = call noundef i32 @_ZN11duckdb_zstdL18MEM_isLittleEndianEv()
  %5 = icmp ne i32 %4, 0
  br i1 %5, label %6, label %9

6:                                                ; preds = %1
  %7 = load ptr, ptr %3, align 8, !tbaa !12
  %8 = call noundef i64 @_ZN11duckdb_zstdL10MEM_read64EPKv(ptr noundef %7)
  store i64 %8, ptr %2, align 8
  br label %13

9:                                                ; preds = %1
  %10 = load ptr, ptr %3, align 8, !tbaa !12
  %11 = call noundef i64 @_ZN11duckdb_zstdL10MEM_read64EPKv(ptr noundef %10)
  %12 = call noundef i64 @_ZN11duckdb_zstdL10MEM_swap64Em(i64 noundef %11)
  store i64 %12, ptr %2, align 8
  br label %13

13:                                               ; preds = %9, %6
  %14 = load i64, ptr %2, align 8
  ret i64 %14
}

; Function Attrs: inlinehint mustprogress uwtable
define internal noundef i32 @_ZN11duckdb_zstdL12MEM_readLE32EPKv(ptr noundef %0) #5 {
  %2 = alloca i32, align 4
  %3 = alloca ptr, align 8
  store ptr %0, ptr %3, align 8, !tbaa !12
  %4 = call noundef i32 @_ZN11duckdb_zstdL18MEM_isLittleEndianEv()
  %5 = icmp ne i32 %4, 0
  br i1 %5, label %6, label %9

6:                                                ; preds = %1
  %7 = load ptr, ptr %3, align 8, !tbaa !12
  %8 = call noundef i32 @_ZN11duckdb_zstdL10MEM_read32EPKv(ptr noundef %7)
  store i32 %8, ptr %2, align 4
  br label %13

9:                                                ; preds = %1
  %10 = load ptr, ptr %3, align 8, !tbaa !12
  %11 = call noundef i32 @_ZN11duckdb_zstdL10MEM_read32EPKv(ptr noundef %10)
  %12 = call noundef i32 @_ZN11duckdb_zstdL10MEM_swap32Ej(i32 noundef %11)
  store i32 %12, ptr %2, align 4
  br label %13

13:                                               ; preds = %9, %6
  %14 = load i32, ptr %2, align 4
  ret i32 %14
}

; Function Attrs: inlinehint mustprogress nounwind uwtable
define internal noundef i32 @_ZN11duckdb_zstdL10MEM_32bitsEv() #4 {
  ret i32 0
}

; Function Attrs: alwaysinline mustprogress nounwind uwtable
define internal noundef i64 @_ZN11duckdb_zstdL17BIT_getMiddleBitsEmjj(i64 noundef %0, i32 noundef %1, i32 noundef %2) #11 {
  %4 = alloca i64, align 8
  %5 = alloca i32, align 4
  %6 = alloca i32, align 4
  %7 = alloca i32, align 4
  store i64 %0, ptr %4, align 8, !tbaa !13
  store i32 %1, ptr %5, align 4, !tbaa !10
  store i32 %2, ptr %6, align 4, !tbaa !10
  call void @llvm.lifetime.start.p0(i64 4, ptr %7) #13
  store i32 63, ptr %7, align 4, !tbaa !10
  %8 = load i64, ptr %4, align 8, !tbaa !13
  %9 = load i32, ptr %5, align 4, !tbaa !10
  %10 = and i32 %9, 63
  %11 = zext i32 %10 to i64
  %12 = lshr i64 %8, %11
  %13 = load i32, ptr %6, align 4, !tbaa !10
  %14 = zext i32 %13 to i64
  %15 = shl i64 1, %14
  %16 = sub i64 %15, 1
  %17 = and i64 %12, %16
  call void @llvm.lifetime.end.p0(i64 4, ptr %7) #13
  ret i64 %17
}

; Function Attrs: inlinehint mustprogress uwtable
define internal noundef i64 @_ZN11duckdb_zstdL12MEM_readLESTEPKv(ptr noundef %0) #5 {
  %2 = alloca i64, align 8
  %3 = alloca ptr, align 8
  store ptr %0, ptr %3, align 8, !tbaa !12
  %4 = call noundef i32 @_ZN11duckdb_zstdL10MEM_32bitsEv()
  %5 = icmp ne i32 %4, 0
  br i1 %5, label %6, label %10

6:                                                ; preds = %1
  %7 = load ptr, ptr %3, align 8, !tbaa !12
  %8 = call noundef i32 @_ZN11duckdb_zstdL12MEM_readLE32EPKv(ptr noundef %7)
  %9 = zext i32 %8 to i64
  store i64 %9, ptr %2, align 8
  br label %13

10:                                               ; preds = %1
  %11 = load ptr, ptr %3, align 8, !tbaa !12
  %12 = call noundef i64 @_ZN11duckdb_zstdL12MEM_readLE64EPKv(ptr noundef %11)
  store i64 %12, ptr %2, align 8
  br label %13

13:                                               ; preds = %10, %6
  %14 = load i64, ptr %2, align 8
  ret i64 %14
}

; Function Attrs: inlinehint mustprogress uwtable
define internal noundef i32 @_ZN11duckdb_zstdL26BIT_reloadDStream_internalEPNS_13BIT_DStream_tE(ptr noundef %0) #5 {
  %2 = alloca ptr, align 8
  store ptr %0, ptr %2, align 8, !tbaa !12
  %3 = load ptr, ptr %2, align 8, !tbaa !12
  %4 = getelementptr inbounds nuw %"struct.duckdb_zstd::BIT_DStream_t", ptr %3, i32 0, i32 1
  %5 = load i32, ptr %4, align 8, !tbaa !44
  %6 = lshr i32 %5, 3
  %7 = load ptr, ptr %2, align 8, !tbaa !12
  %8 = getelementptr inbounds nuw %"struct.duckdb_zstd::BIT_DStream_t", ptr %7, i32 0, i32 2
  %9 = load ptr, ptr %8, align 8, !tbaa !42
  %10 = zext i32 %6 to i64
  %11 = sub i64 0, %10
  %12 = getelementptr inbounds i8, ptr %9, i64 %11
  store ptr %12, ptr %8, align 8, !tbaa !42
  %13 = load ptr, ptr %2, align 8, !tbaa !12
  %14 = getelementptr inbounds nuw %"struct.duckdb_zstd::BIT_DStream_t", ptr %13, i32 0, i32 1
  %15 = load i32, ptr %14, align 8, !tbaa !44
  %16 = and i32 %15, 7
  store i32 %16, ptr %14, align 8, !tbaa !44
  %17 = load ptr, ptr %2, align 8, !tbaa !12
  %18 = getelementptr inbounds nuw %"struct.duckdb_zstd::BIT_DStream_t", ptr %17, i32 0, i32 2
  %19 = load ptr, ptr %18, align 8, !tbaa !42
  %20 = call noundef i64 @_ZN11duckdb_zstdL12MEM_readLESTEPKv(ptr noundef %19)
  %21 = load ptr, ptr %2, align 8, !tbaa !12
  %22 = getelementptr inbounds nuw %"struct.duckdb_zstd::BIT_DStream_t", ptr %21, i32 0, i32 0
  store i64 %20, ptr %22, align 8, !tbaa !43
  ret i32 0
}

; Function Attrs: alwaysinline mustprogress nounwind uwtable
define internal void @_ZN11duckdb_zstdL12BIT_skipBitsEPNS_13BIT_DStream_tEj(ptr noundef %0, i32 noundef %1) #11 {
  %3 = alloca ptr, align 8
  %4 = alloca i32, align 4
  store ptr %0, ptr %3, align 8, !tbaa !12
  store i32 %1, ptr %4, align 4, !tbaa !10
  %5 = load i32, ptr %4, align 4, !tbaa !10
  %6 = load ptr, ptr %3, align 8, !tbaa !12
  %7 = getelementptr inbounds nuw %"struct.duckdb_zstd::BIT_DStream_t", ptr %6, i32 0, i32 1
  %8 = load i32, ptr %7, align 8, !tbaa !44
  %9 = add i32 %8, %5
  store i32 %9, ptr %7, align 8, !tbaa !44
  ret void
}

; Function Attrs: alwaysinline mustprogress uwtable
define internal noundef i64 @_ZN11duckdb_zstdL12BIT_lookBitsEPKNS_13BIT_DStream_tEj(ptr noundef %0, i32 noundef %1) #7 {
  %3 = alloca ptr, align 8
  %4 = alloca i32, align 4
  store ptr %0, ptr %3, align 8, !tbaa !12
  store i32 %1, ptr %4, align 4, !tbaa !10
  %5 = load ptr, ptr %3, align 8, !tbaa !12
  %6 = getelementptr inbounds nuw %"struct.duckdb_zstd::BIT_DStream_t", ptr %5, i32 0, i32 0
  %7 = load i64, ptr %6, align 8, !tbaa !43
  %8 = load ptr, ptr %3, align 8, !tbaa !12
  %9 = getelementptr inbounds nuw %"struct.duckdb_zstd::BIT_DStream_t", ptr %8, i32 0, i32 1
  %10 = load i32, ptr %9, align 8, !tbaa !44
  %11 = zext i32 %10 to i64
  %12 = sub i64 64, %11
  %13 = load i32, ptr %4, align 4, !tbaa !10
  %14 = zext i32 %13 to i64
  %15 = sub i64 %12, %14
  %16 = trunc i64 %15 to i32
  %17 = load i32, ptr %4, align 4, !tbaa !10
  %18 = call noundef i64 @_ZN11duckdb_zstdL17BIT_getMiddleBitsEmjj(i64 noundef %7, i32 noundef %16, i32 noundef %17)
  ret i64 %18
}

; Function Attrs: alwaysinline mustprogress uwtable
define internal noundef i32 @_ZN11duckdb_zstdL17BIT_reloadDStreamEPNS_13BIT_DStream_tE(ptr noundef %0) #7 {
  %2 = alloca i32, align 4
  %3 = alloca ptr, align 8
  %4 = alloca i32, align 4
  %5 = alloca i32, align 4
  store ptr %0, ptr %3, align 8, !tbaa !12
  %6 = load ptr, ptr %3, align 8, !tbaa !12
  %7 = getelementptr inbounds nuw %"struct.duckdb_zstd::BIT_DStream_t", ptr %6, i32 0, i32 1
  %8 = load i32, ptr %7, align 8, !tbaa !44
  %9 = zext i32 %8 to i64
  %10 = icmp ugt i64 %9, 64
  %11 = zext i1 %10 to i64
  %12 = call i64 @llvm.expect.i64(i64 %11, i64 0)
  %13 = icmp ne i64 %12, 0
  br i1 %13, label %14, label %17

14:                                               ; preds = %1
  %15 = load ptr, ptr %3, align 8, !tbaa !12
  %16 = getelementptr inbounds nuw %"struct.duckdb_zstd::BIT_DStream_t", ptr %15, i32 0, i32 2
  store ptr @_ZZN11duckdb_zstdL17BIT_reloadDStreamEPNS_13BIT_DStream_tEE10zeroFilled, ptr %16, align 8, !tbaa !42
  store i32 3, ptr %2, align 4
  br label %92

17:                                               ; preds = %1
  %18 = load ptr, ptr %3, align 8, !tbaa !12
  %19 = getelementptr inbounds nuw %"struct.duckdb_zstd::BIT_DStream_t", ptr %18, i32 0, i32 2
  %20 = load ptr, ptr %19, align 8, !tbaa !42
  %21 = load ptr, ptr %3, align 8, !tbaa !12
  %22 = getelementptr inbounds nuw %"struct.duckdb_zstd::BIT_DStream_t", ptr %21, i32 0, i32 4
  %23 = load ptr, ptr %22, align 8, !tbaa !41
  %24 = icmp uge ptr %20, %23
  br i1 %24, label %25, label %28

25:                                               ; preds = %17
  %26 = load ptr, ptr %3, align 8, !tbaa !12
  %27 = call noundef i32 @_ZN11duckdb_zstdL26BIT_reloadDStream_internalEPNS_13BIT_DStream_tE(ptr noundef %26)
  store i32 %27, ptr %2, align 4
  br label %92

28:                                               ; preds = %17
  %29 = load ptr, ptr %3, align 8, !tbaa !12
  %30 = getelementptr inbounds nuw %"struct.duckdb_zstd::BIT_DStream_t", ptr %29, i32 0, i32 2
  %31 = load ptr, ptr %30, align 8, !tbaa !42
  %32 = load ptr, ptr %3, align 8, !tbaa !12
  %33 = getelementptr inbounds nuw %"struct.duckdb_zstd::BIT_DStream_t", ptr %32, i32 0, i32 3
  %34 = load ptr, ptr %33, align 8, !tbaa !39
  %35 = icmp eq ptr %31, %34
  br i1 %35, label %36, label %44

36:                                               ; preds = %28
  %37 = load ptr, ptr %3, align 8, !tbaa !12
  %38 = getelementptr inbounds nuw %"struct.duckdb_zstd::BIT_DStream_t", ptr %37, i32 0, i32 1
  %39 = load i32, ptr %38, align 8, !tbaa !44
  %40 = zext i32 %39 to i64
  %41 = icmp ult i64 %40, 64
  br i1 %41, label %42, label %43

42:                                               ; preds = %36
  store i32 1, ptr %2, align 4
  br label %92

43:                                               ; preds = %36
  store i32 2, ptr %2, align 4
  br label %92

44:                                               ; preds = %28
  call void @llvm.lifetime.start.p0(i64 4, ptr %4) #13
  %45 = load ptr, ptr %3, align 8, !tbaa !12
  %46 = getelementptr inbounds nuw %"struct.duckdb_zstd::BIT_DStream_t", ptr %45, i32 0, i32 1
  %47 = load i32, ptr %46, align 8, !tbaa !44
  %48 = lshr i32 %47, 3
  store i32 %48, ptr %4, align 4, !tbaa !10
  call void @llvm.lifetime.start.p0(i64 4, ptr %5) #13
  store i32 0, ptr %5, align 4, !tbaa !48
  %49 = load ptr, ptr %3, align 8, !tbaa !12
  %50 = getelementptr inbounds nuw %"struct.duckdb_zstd::BIT_DStream_t", ptr %49, i32 0, i32 2
  %51 = load ptr, ptr %50, align 8, !tbaa !42
  %52 = load i32, ptr %4, align 4, !tbaa !10
  %53 = zext i32 %52 to i64
  %54 = sub i64 0, %53
  %55 = getelementptr inbounds i8, ptr %51, i64 %54
  %56 = load ptr, ptr %3, align 8, !tbaa !12
  %57 = getelementptr inbounds nuw %"struct.duckdb_zstd::BIT_DStream_t", ptr %56, i32 0, i32 3
  %58 = load ptr, ptr %57, align 8, !tbaa !39
  %59 = icmp ult ptr %55, %58
  br i1 %59, label %60, label %71

60:                                               ; preds = %44
  %61 = load ptr, ptr %3, align 8, !tbaa !12
  %62 = getelementptr inbounds nuw %"struct.duckdb_zstd::BIT_DStream_t", ptr %61, i32 0, i32 2
  %63 = load ptr, ptr %62, align 8, !tbaa !42
  %64 = load ptr, ptr %3, align 8, !tbaa !12
  %65 = getelementptr inbounds nuw %"struct.duckdb_zstd::BIT_DStream_t", ptr %64, i32 0, i32 3
  %66 = load ptr, ptr %65, align 8, !tbaa !39
  %67 = ptrtoint ptr %63 to i64
  %68 = ptrtoint ptr %66 to i64
  %69 = sub i64 %67, %68
  %70 = trunc i64 %69 to i32
  store i32 %70, ptr %4, align 4, !tbaa !10
  store i32 1, ptr %5, align 4, !tbaa !48
  br label %71

71:                                               ; preds = %60, %44
  %72 = load i32, ptr %4, align 4, !tbaa !10
  %73 = load ptr, ptr %3, align 8, !tbaa !12
  %74 = getelementptr inbounds nuw %"struct.duckdb_zstd::BIT_DStream_t", ptr %73, i32 0, i32 2
  %75 = load ptr, ptr %74, align 8, !tbaa !42
  %76 = zext i32 %72 to i64
  %77 = sub i64 0, %76
  %78 = getelementptr inbounds i8, ptr %75, i64 %77
  store ptr %78, ptr %74, align 8, !tbaa !42
  %79 = load i32, ptr %4, align 4, !tbaa !10
  %80 = mul i32 %79, 8
  %81 = load ptr, ptr %3, align 8, !tbaa !12
  %82 = getelementptr inbounds nuw %"struct.duckdb_zstd::BIT_DStream_t", ptr %81, i32 0, i32 1
  %83 = load i32, ptr %82, align 8, !tbaa !44
  %84 = sub i32 %83, %80
  store i32 %84, ptr %82, align 8, !tbaa !44
  %85 = load ptr, ptr %3, align 8, !tbaa !12
  %86 = getelementptr inbounds nuw %"struct.duckdb_zstd::BIT_DStream_t", ptr %85, i32 0, i32 2
  %87 = load ptr, ptr %86, align 8, !tbaa !42
  %88 = call noundef i64 @_ZN11duckdb_zstdL12MEM_readLESTEPKv(ptr noundef %87)
  %89 = load ptr, ptr %3, align 8, !tbaa !12
  %90 = getelementptr inbounds nuw %"struct.duckdb_zstd::BIT_DStream_t", ptr %89, i32 0, i32 0
  store i64 %88, ptr %90, align 8, !tbaa !43
  %91 = load i32, ptr %5, align 4, !tbaa !48
  store i32 %91, ptr %2, align 4
  call void @llvm.lifetime.end.p0(i64 4, ptr %5) #13
  call void @llvm.lifetime.end.p0(i64 4, ptr %4) #13
  br label %92

92:                                               ; preds = %71, %43, %42, %25, %14
  %93 = load i32, ptr %2, align 4
  ret i32 %93
}

; Function Attrs: alwaysinline mustprogress uwtable
define internal noundef i64 @_ZN11duckdb_zstdL12BIT_readBitsEPNS_13BIT_DStream_tEj(ptr noundef %0, i32 noundef %1) #7 {
  %3 = alloca ptr, align 8
  %4 = alloca i32, align 4
  %5 = alloca i64, align 8
  store ptr %0, ptr %3, align 8, !tbaa !12
  store i32 %1, ptr %4, align 4, !tbaa !10
  call void @llvm.lifetime.start.p0(i64 8, ptr %5) #13
  %6 = load ptr, ptr %3, align 8, !tbaa !12
  %7 = load i32, ptr %4, align 4, !tbaa !10
  %8 = call noundef i64 @_ZN11duckdb_zstdL12BIT_lookBitsEPKNS_13BIT_DStream_tEj(ptr noundef %6, i32 noundef %7)
  store i64 %8, ptr %5, align 8, !tbaa !13
  %9 = load ptr, ptr %3, align 8, !tbaa !12
  %10 = load i32, ptr %4, align 4, !tbaa !10
  call void @_ZN11duckdb_zstdL12BIT_skipBitsEPNS_13BIT_DStream_tEj(ptr noundef %9, i32 noundef %10)
  %11 = load i64, ptr %5, align 8, !tbaa !13
  call void @llvm.lifetime.end.p0(i64 8, ptr %5) #13
  ret i64 %11
}

; Function Attrs: inlinehint mustprogress uwtable
define internal void @_ZN11duckdb_zstdL14FSE_initDStateEPNS_12FSE_DState_tEPNS_13BIT_DStream_tEPKj(ptr noundef %0, ptr noundef %1, ptr noundef %2) #5 {
  %4 = alloca ptr, align 8
  %5 = alloca ptr, align 8
  %6 = alloca ptr, align 8
  %7 = alloca ptr, align 8
  %8 = alloca ptr, align 8
  store ptr %0, ptr %4, align 8, !tbaa !12
  store ptr %1, ptr %5, align 8, !tbaa !12
  store ptr %2, ptr %6, align 8, !tbaa !3
  call void @llvm.lifetime.start.p0(i64 8, ptr %7) #13
  %9 = load ptr, ptr %6, align 8, !tbaa !3
  store ptr %9, ptr %7, align 8, !tbaa !12
  call void @llvm.lifetime.start.p0(i64 8, ptr %8) #13
  %10 = load ptr, ptr %7, align 8, !tbaa !12
  store ptr %10, ptr %8, align 8, !tbaa !12
  %11 = load ptr, ptr %5, align 8, !tbaa !12
  %12 = load ptr, ptr %8, align 8, !tbaa !12
  %13 = getelementptr inbounds nuw %"struct.duckdb_zstd::FSE_DTableHeader", ptr %12, i32 0, i32 0
  %14 = load i16, ptr %13, align 2, !tbaa !17
  %15 = zext i16 %14 to i32
  %16 = call noundef i64 @_ZN11duckdb_zstdL12BIT_readBitsEPNS_13BIT_DStream_tEj(ptr noundef %11, i32 noundef %15)
  %17 = load ptr, ptr %4, align 8, !tbaa !12
  %18 = getelementptr inbounds nuw %"struct.duckdb_zstd::FSE_DState_t", ptr %17, i32 0, i32 0
  store i64 %16, ptr %18, align 8, !tbaa !45
  %19 = load ptr, ptr %5, align 8, !tbaa !12
  %20 = call noundef i32 @_ZN11duckdb_zstdL17BIT_reloadDStreamEPNS_13BIT_DStream_tE(ptr noundef %19)
  %21 = load ptr, ptr %6, align 8, !tbaa !3
  %22 = getelementptr inbounds i32, ptr %21, i64 1
  %23 = load ptr, ptr %4, align 8, !tbaa !12
  %24 = getelementptr inbounds nuw %"struct.duckdb_zstd::FSE_DState_t", ptr %23, i32 0, i32 1
  store ptr %22, ptr %24, align 8, !tbaa !47
  call void @llvm.lifetime.end.p0(i64 8, ptr %8) #13
  call void @llvm.lifetime.end.p0(i64 8, ptr %7) #13
  ret void
}